; ModuleID = 'source-C-CXX/19/1063.c'
source_filename = "source-C-CXX/19/1063.c"
target datalayout = "e-m:e-p270:32:32-p271:32:32-p272:64:64-i64:64-f80:128-n8:16:32:64-S128"
target triple = "x86_64-pc-linux-gnu"

@.str = private unnamed_addr constant [5 x i8] c"%s%s\00", align 1

; Function Attrs: nofree nounwind sspstrong uwtable
define dso_local i32 @main() local_unnamed_addr #0 {
  %1 = alloca [100 x i8], align 16
  %2 = alloca [10 x i8], align 1
  %3 = getelementptr inbounds [100 x i8], [100 x i8]* %1, i64 0, i64 0
  call void @llvm.lifetime.start.p0i8(i64 100, i8* nonnull %3) #6
  %4 = getelementptr inbounds [10 x i8], [10 x i8]* %2, i64 0, i64 0
  call void @llvm.lifetime.start.p0i8(i64 10, i8* nonnull %4) #6
  call void @llvm.memset.p0i8.i64(i8* noundef nonnull align 1 dereferenceable(10) %4, i8 0, i64 10, i1 false)
  %5 = getelementptr inbounds [10 x i8], [10 x i8]* %2, i64 0, i64 1
  %6 = getelementptr inbounds [10 x i8], [10 x i8]* %2, i64 0, i64 2
  %7 = call i32 (i8*, ...) @__isoc99_scanf(i8* getelementptr inbounds ([5 x i8], [5 x i8]* @.str, i64 0, i64 0), i8* nonnull %3, i8* nonnull %4)
  %8 = icmp eq i32 %7, -1
  br i1 %8, label %117, label %9

9:                                                ; preds = %0, %102
  %10 = call i64 @strlen(i8* noundef nonnull %3) #7
  %11 = trunc i64 %10 to i32
  %12 = icmp sgt i32 %11, 1
  br i1 %12, label %13, label %83

13:                                               ; preds = %9
  %14 = and i64 %10, 4294967295
  %15 = add nsw i64 %14, -1
  %16 = add nsw i64 %14, -2
  %17 = and i64 %15, 3
  %18 = icmp ult i64 %16, 3
  br i1 %18, label %63, label %19

19:                                               ; preds = %13
  %20 = and i64 %15, -4
  br label %21

21:                                               ; preds = %21, %19
  %22 = phi i64 [ 1, %19 ], [ %60, %21 ]
  %23 = phi i32 [ 0, %19 ], [ %59, %21 ]
  %24 = phi i64 [ %20, %19 ], [ %61, %21 ]
  %25 = getelementptr inbounds [100 x i8], [100 x i8]* %1, i64 0, i64 %22
  %26 = load i8, i8* %25, align 1, !tbaa !5
  %27 = sext i32 %23 to i64
  %28 = getelementptr inbounds [100 x i8], [100 x i8]* %1, i64 0, i64 %27
  %29 = load i8, i8* %28, align 1, !tbaa !5
  %30 = icmp sgt i8 %26, %29
  %31 = trunc i64 %22 to i32
  %32 = select i1 %30, i32 %31, i32 %23
  %33 = add nuw nsw i64 %22, 1
  %34 = getelementptr inbounds [100 x i8], [100 x i8]* %1, i64 0, i64 %33
  %35 = load i8, i8* %34, align 1, !tbaa !5
  %36 = sext i32 %32 to i64
  %37 = getelementptr inbounds [100 x i8], [100 x i8]* %1, i64 0, i64 %36
  %38 = load i8, i8* %37, align 1, !tbaa !5
  %39 = icmp sgt i8 %35, %38
  %40 = trunc i64 %33 to i32
  %41 = select i1 %39, i32 %40, i32 %32
  %42 = add nuw nsw i64 %22, 2
  %43 = getelementptr inbounds [100 x i8], [100 x i8]* %1, i64 0, i64 %42
  %44 = load i8, i8* %43, align 1, !tbaa !5
  %45 = sext i32 %41 to i64
  %46 = getelementptr inbounds [100 x i8], [100 x i8]* %1, i64 0, i64 %45
  %47 = load i8, i8* %46, align 1, !tbaa !5
  %48 = icmp sgt i8 %44, %47
  %49 = trunc i64 %42 to i32
  %50 = select i1 %48, i32 %49, i32 %41
  %51 = add nuw nsw i64 %22, 3
  %52 = getelementptr inbounds [100 x i8], [100 x i8]* %1, i64 0, i64 %51
  %53 = load i8, i8* %52, align 1, !tbaa !5
  %54 = sext i32 %50 to i64
  %55 = getelementptr inbounds [100 x i8], [100 x i8]* %1, i64 0, i64 %54
  %56 = load i8, i8* %55, align 1, !tbaa !5
  %57 = icmp sgt i8 %53, %56
  %58 = trunc i64 %51 to i32
  %59 = select i1 %57, i32 %58, i32 %50
  %60 = add nuw nsw i64 %22, 4
  %61 = add i64 %24, -4
  %62 = icmp eq i64 %61, 0
  br i1 %62, label %63, label %21, !llvm.loop !8

63:                                               ; preds = %21, %13
  %64 = phi i32 [ undef, %13 ], [ %59, %21 ]
  %65 = phi i64 [ 1, %13 ], [ %60, %21 ]
  %66 = phi i32 [ 0, %13 ], [ %59, %21 ]
  %67 = icmp eq i64 %17, 0
  br i1 %67, label %83, label %68

68:                                               ; preds = %63, %68
  %69 = phi i64 [ %80, %68 ], [ %65, %63 ]
  %70 = phi i32 [ %79, %68 ], [ %66, %63 ]
  %71 = phi i64 [ %81, %68 ], [ %17, %63 ]
  %72 = getelementptr inbounds [100 x i8], [100 x i8]* %1, i64 0, i64 %69
  %73 = load i8, i8* %72, align 1, !tbaa !5
  %74 = sext i32 %70 to i64
  %75 = getelementptr inbounds [100 x i8], [100 x i8]* %1, i64 0, i64 %74
  %76 = load i8, i8* %75, align 1, !tbaa !5
  %77 = icmp sgt i8 %73, %76
  %78 = trunc i64 %69 to i32
  %79 = select i1 %77, i32 %78, i32 %70
  %80 = add nuw nsw i64 %69, 1
  %81 = add i64 %71, -1
  %82 = icmp eq i64 %81, 0
  br i1 %82, label %83, label %68, !llvm.loop !10

83:                                               ; preds = %63, %68, %9
  %84 = phi i32 [ 0, %9 ], [ %64, %63 ], [ %79, %68 ]
  %85 = add nsw i32 %84, 3
  %86 = icmp slt i32 %84, %11
  br i1 %86, label %89, label %87

87:                                               ; preds = %83
  %88 = sext i32 %85 to i64
  br label %102

89:                                               ; preds = %83
  %90 = shl i64 %10, 32
  %91 = add i64 %90, 12884901888
  %92 = ashr exact i64 %91, 32
  %93 = sext i32 %85 to i64
  br label %94

94:                                               ; preds = %89, %94
  %95 = phi i64 [ %92, %89 ], [ %100, %94 ]
  %96 = add nsw i64 %95, -3
  %97 = getelementptr inbounds [100 x i8], [100 x i8]* %1, i64 0, i64 %96
  %98 = load i8, i8* %97, align 1, !tbaa !5
  %99 = getelementptr inbounds [100 x i8], [100 x i8]* %1, i64 0, i64 %95
  store i8 %98, i8* %99, align 1, !tbaa !5
  %100 = add nsw i64 %95, -1
  %101 = icmp sgt i64 %100, %93
  br i1 %101, label %94, label %102, !llvm.loop !12

102:                                              ; preds = %94, %87
  %103 = phi i64 [ %88, %87 ], [ %93, %94 ]
  %104 = load i8, i8* %4, align 1, !tbaa !5
  %105 = add nsw i32 %84, 1
  %106 = sext i32 %105 to i64
  %107 = getelementptr inbounds [100 x i8], [100 x i8]* %1, i64 0, i64 %106
  store i8 %104, i8* %107, align 1, !tbaa !5
  %108 = load i8, i8* %5, align 1, !tbaa !5
  %109 = add nsw i32 %84, 2
  %110 = sext i32 %109 to i64
  %111 = getelementptr inbounds [100 x i8], [100 x i8]* %1, i64 0, i64 %110
  store i8 %108, i8* %111, align 1, !tbaa !5
  %112 = load i8, i8* %6, align 1, !tbaa !5
  %113 = getelementptr inbounds [100 x i8], [100 x i8]* %1, i64 0, i64 %103
  store i8 %112, i8* %113, align 1, !tbaa !5
  %114 = call i32 @puts(i8* nonnull %3)
  %115 = call i32 (i8*, ...) @__isoc99_scanf(i8* getelementptr inbounds ([5 x i8], [5 x i8]* @.str, i64 0, i64 0), i8* nonnull %3, i8* nonnull %4)
  %116 = icmp eq i32 %115, -1
  br i1 %116, label %117, label %9, !llvm.loop !13

117:                                              ; preds = %102, %0
  call void @llvm.lifetime.end.p0i8(i64 10, i8* nonnull %4) #6
  call void @llvm.lifetime.end.p0i8(i64 100, i8* nonnull %3) #6
  ret i32 0
}

; Function Attrs: argmemonly mustprogress nofree nosync nounwind willreturn
declare void @llvm.lifetime.start.p0i8(i64 immarg, i8* nocapture) #1

; Function Attrs: argmemonly mustprogress nofree nounwind willreturn writeonly
declare void @llvm.memset.p0i8.i64(i8* nocapture writeonly, i8, i64, i1 immarg) #2

; Function Attrs: nofree nounwind
declare noundef i32 @__isoc99_scanf(i8* nocapture noundef readonly, ...) local_unnamed_addr #3

; Function Attrs: argmemonly mustprogress nofree nounwind readonly willreturn
declare i64 @strlen(i8* nocapture) local_unnamed_addr #4

; Function Attrs: argmemonly mustprogress nofree nosync nounwind willreturn
declare void @llvm.lifetime.end.p0i8(i64 immarg, i8* nocapture) #1

; Function Attrs: nofree nounwind
declare noundef i32 @puts(i8* nocapture noundef readonly) local_unnamed_addr #5


!llvm.module.flags = !{!0, !1, !2, !3}
!llvm.ident = !{!4}

!0 = !{i32 1, !"wchar_size", i32 4}
!1 = !{i32 7, !"PIC Level", i32 2}
!2 = !{i32 7, !"PIE Level", i32 2}
!3 = !{i32 7, !"uwtable", i32 1}
!4 = !{!"clang version 13.0.0"}
!5 = !{!6, !6, i64 0}
!6 = !{!"omnipotent char", !7, i64 0}
!7 = !{!"Simple C/C++ TBAA"}
!8 = distinct !{!8, !9}
!9 = !{!"llvm.loop.mustprogress"}
!10 = distinct !{!10, !11}
!11 = !{!"llvm.loop.unroll.disable"}
!12 = distinct !{!12, !9}
!13 = distinct !{!13, !9}
